(lp1
cnumpy.core.multiarray
scalar
p2
(cnumpy
dtype
p3
(S'f8'
I0
I1
tRp4
(I3
S'<'
NNNI-1
I-1
I0
tbS'O\xaf\x94e\x88c\xef?'
tRp5
ag2
(g4
S't$\x97\xff\x90~\xef?'
tRp6
ag2
(g4
S'\xbdR\x96!\x8eu\xef?'
tRp7
a.(lp1
cnumpy.core.multiarray
scalar
p2
(cnumpy
dtype
p3
(S'f8'
I0
I1
tRp4
(I3
S'<'
NNNI-1
I-1
I0
tbS'\x0c\x93\xa9\x82QI\xef?'
tRp5
ag2
(g4
S'\x19s\xd7\x12\xf2A\xef?'
tRp6
ag2
(g4
S'\xa5\xbd\xc1\x17&S\xef?'
tRp7
a.(lp1
cnumpy.core.multiarray
scalar
p2
(cnumpy
dtype
p3
(S'f8'
I0
I1
tRp4
(I3
S'<'
NNNI-1
I-1
I0
tbS'q\xac\x8b\xdbh\x00\xed?'
tRp5
ag2
(g4
S'|\xf2\xb0Pk\x9a\xed?'
tRp6
ag2
(g4
S'r\xf9\x0f\xe9\xb7\xaf\xed?'
tRp7
a.(lp1
cnumpy.core.multiarray
scalar
p2
(cnumpy
dtype
p3
(S'f8'
I0
I1
tRp4
(I3
S'<'
NNNI-1
I-1
I0
tbS')\xed\r\xbe0\x99\xba?'
tRp5
ag2
(g4
S'\xfe\xd4x\xe9&1\xb8?'
tRp6
ag2
(g4
S'A\xf1c\xcc]K\xb8?'
tRp7
a.(lp1
cnumpy.core.multiarray
scalar
p2
(cnumpy
dtype
p3
(S'f8'
I0
I1
tRp4
(I3
S'<'
NNNI-1
I-1
I0
tbS'\xb8\xaf\x03\xe7\x8c(\xef?'
tRp5
ag2
(g4
S'\xc9v\xbe\x9f\x1a/\xef?'
tRp6
ag2
(g4
S'\xf4\xfd\xd4x\xe9&\xef?'
tRp7
a.(lp1
cnumpy.core.multiarray
scalar
p2
(cnumpy
dtype
p3
(S'f8'
I0
I1
tRp4
(I3
S'<'
NNNI-1
I-1
I0
tbS'/\xdd$\x06\x81\x95\xed?'
tRp5
ag2
(g4
S'a2U0*\xa9\xed?'
tRp6
ag2
(g4
S'k+\xf6\x97\xdd\x93\xed?'
tRp7
a.(lp1
cnumpy.core.multiarray
scalar
p2
(cnumpy
dtype
p3
(S'f8'
I0
I1
tRp4
(I3
S'<'
NNNI-1
I-1
I0
tbS'/\xdd$\x06\x81\x95\xed?'
tRp5
ag2
(g4
S'a2U0*\xa9\xed?'
tRp6
ag2
(g4
S'k+\xf6\x97\xdd\x93\xed?'
tRp7
a.(lp1
cnumpy.core.multiarray
scalar
p2
(cnumpy
dtype
p3
(S'f8'
I0
I1
tRp4
(I3
S'<'
NNNI-1
I-1
I0
tbS'\x89A`\xe5\xd0"\xe7?'
tRp5
ag2
(g4
S'/\xdd$\x06\x81\x95\xe7?'
tRp6
ag2
(g4
S'ffffff\xe8?'
tRp7
a.